; ModuleID = '57/2708.c'
source_filename = "57/2708.c"
target datalayout = "e-m:e-p270:32:32-p271:32:32-p272:64:64-i64:64-f80:128-n8:16:32:64-S128"
target triple = "x86_64-pc-linux-gnu"

@.str = private unnamed_addr constant [3 x i8] c"%d\00", align 1
@.str.1 = private unnamed_addr constant [3 x i8] c"%s\00", align 1
@.str.2 = private unnamed_addr constant [3 x i8] c"%c\00", align 1
@.str.3 = private unnamed_addr constant [2 x i8] c"\0A\00", align 1

; Function Attrs: noinline nounwind uwtable
define dso_local i32 @main() #0 {
  %1 = alloca i32, align 4
  %2 = alloca i32, align 4
  %3 = alloca [50 x [20 x i8]], align 16
  %4 = alloca [50 x [20 x i8]], align 16
  %5 = alloca [50 x i32], align 16
  %6 = alloca i32, align 4
  %7 = alloca i32, align 4
  %8 = alloca i32, align 4
  %9 = alloca i32, align 4
  %10 = alloca i32, align 4
  store i32 0, i32* %1, align 4
  %11 = call i32 (i8*, ...) @__isoc99_scanf(i8* getelementptr inbounds ([3 x i8], [3 x i8]* @.str, i64 0, i64 0), i32* %2)
  store i32 0, i32* %6, align 4
  br label %12

12:                                               ; preds = %155, %0
  %13 = load i32, i32* %6, align 4
  %14 = load i32, i32* %2, align 4
  %15 = icmp slt i32 %13, %14
  br i1 %15, label %16, label %158

16:                                               ; preds = %12
  %17 = load i32, i32* %6, align 4
  %18 = sext i32 %17 to i64
  %19 = getelementptr inbounds [50 x [20 x i8]], [50 x [20 x i8]]* %3, i64 0, i64 %18
  %20 = call i32 (i8*, ...) @__isoc99_scanf(i8* getelementptr inbounds ([3 x i8], [3 x i8]* @.str.1, i64 0, i64 0), [20 x i8]* %19)
  %21 = load i32, i32* %6, align 4
  %22 = sext i32 %21 to i64
  %23 = getelementptr inbounds [50 x [20 x i8]], [50 x [20 x i8]]* %3, i64 0, i64 %22
  %24 = getelementptr inbounds [20 x i8], [20 x i8]* %23, i64 0, i64 0
  %25 = call i64 @strlen(i8* %24) #3
  %26 = trunc i64 %25 to i32
  %27 = load i32, i32* %6, align 4
  %28 = sext i32 %27 to i64
  %29 = getelementptr inbounds [50 x i32], [50 x i32]* %5, i64 0, i64 %28
  store i32 %26, i32* %29, align 4
  %30 = load i32, i32* %6, align 4
  %31 = sext i32 %30 to i64
  %32 = getelementptr inbounds [50 x [20 x i8]], [50 x [20 x i8]]* %3, i64 0, i64 %31
  %33 = load i32, i32* %6, align 4
  %34 = sext i32 %33 to i64
  %35 = getelementptr inbounds [50 x i32], [50 x i32]* %5, i64 0, i64 %34
  %36 = load i32, i32* %35, align 4
  %37 = sub nsw i32 %36, 1
  %38 = sext i32 %37 to i64
  %39 = getelementptr inbounds [20 x i8], [20 x i8]* %32, i64 0, i64 %38
  %40 = load i8, i8* %39, align 1
  %41 = sext i8 %40 to i32
  %42 = icmp eq i32 %41, 114
  br i1 %42, label %43, label %70

43:                                               ; preds = %16
  store i32 0, i32* %7, align 4
  br label %44

44:                                               ; preds = %66, %43
  %45 = load i32, i32* %7, align 4
  %46 = load i32, i32* %6, align 4
  %47 = sext i32 %46 to i64
  %48 = getelementptr inbounds [50 x i32], [50 x i32]* %5, i64 0, i64 %47
  %49 = load i32, i32* %48, align 4
  %50 = sub nsw i32 %49, 2
  %51 = icmp slt i32 %45, %50
  br i1 %51, label %52, label %69

52:                                               ; preds = %44
  %53 = load i32, i32* %6, align 4
  %54 = sext i32 %53 to i64
  %55 = getelementptr inbounds [50 x [20 x i8]], [50 x [20 x i8]]* %3, i64 0, i64 %54
  %56 = load i32, i32* %7, align 4
  %57 = sext i32 %56 to i64
  %58 = getelementptr inbounds [20 x i8], [20 x i8]* %55, i64 0, i64 %57
  %59 = load i8, i8* %58, align 1
  %60 = load i32, i32* %6, align 4
  %61 = sext i32 %60 to i64
  %62 = getelementptr inbounds [50 x [20 x i8]], [50 x [20 x i8]]* %4, i64 0, i64 %61
  %63 = load i32, i32* %7, align 4
  %64 = sext i32 %63 to i64
  %65 = getelementptr inbounds [20 x i8], [20 x i8]* %62, i64 0, i64 %64
  store i8 %59, i8* %65, align 1
  br label %66

66:                                               ; preds = %52
  %67 = load i32, i32* %7, align 4
  %68 = add nsw i32 %67, 1
  store i32 %68, i32* %7, align 4
  br label %44

69:                                               ; preds = %44
  br label %154

70:                                               ; preds = %16
  %71 = load i32, i32* %6, align 4
  %72 = sext i32 %71 to i64
  %73 = getelementptr inbounds [50 x [20 x i8]], [50 x [20 x i8]]* %3, i64 0, i64 %72
  %74 = load i32, i32* %6, align 4
  %75 = sext i32 %74 to i64
  %76 = getelementptr inbounds [50 x i32], [50 x i32]* %5, i64 0, i64 %75
  %77 = load i32, i32* %76, align 4
  %78 = sub nsw i32 %77, 1
  %79 = sext i32 %78 to i64
  %80 = getelementptr inbounds [20 x i8], [20 x i8]* %73, i64 0, i64 %79
  %81 = load i8, i8* %80, align 1
  %82 = sext i8 %81 to i32
  %83 = icmp eq i32 %82, 103
  br i1 %83, label %84, label %111

84:                                               ; preds = %70
  store i32 0, i32* %8, align 4
  br label %85

85:                                               ; preds = %107, %84
  %86 = load i32, i32* %8, align 4
  %87 = load i32, i32* %6, align 4
  %88 = sext i32 %87 to i64
  %89 = getelementptr inbounds [50 x i32], [50 x i32]* %5, i64 0, i64 %88
  %90 = load i32, i32* %89, align 4
  %91 = sub nsw i32 %90, 3
  %92 = icmp slt i32 %86, %91
  br i1 %92, label %93, label %110

93:                                               ; preds = %85
  %94 = load i32, i32* %6, align 4
  %95 = sext i32 %94 to i64
  %96 = getelementptr inbounds [50 x [20 x i8]], [50 x [20 x i8]]* %3, i64 0, i64 %95
  %97 = load i32, i32* %8, align 4
  %98 = sext i32 %97 to i64
  %99 = getelementptr inbounds [20 x i8], [20 x i8]* %96, i64 0, i64 %98
  %100 = load i8, i8* %99, align 1
  %101 = load i32, i32* %6, align 4
  %102 = sext i32 %101 to i64
  %103 = getelementptr inbounds [50 x [20 x i8]], [50 x [20 x i8]]* %4, i64 0, i64 %102
  %104 = load i32, i32* %8, align 4
  %105 = sext i32 %104 to i64
  %106 = getelementptr inbounds [20 x i8], [20 x i8]* %103, i64 0, i64 %105
  store i8 %100, i8* %106, align 1
  br label %107

107:                                              ; preds = %93
  %108 = load i32, i32* %8, align 4
  %109 = add nsw i32 %108, 1
  store i32 %109, i32* %8, align 4
  br label %85

110:                                              ; preds = %85
  br label %153

111:                                              ; preds = %70
  %112 = load i32, i32* %6, align 4
  %113 = sext i32 %112 to i64
  %114 = getelementptr inbounds [50 x [20 x i8]], [50 x [20 x i8]]* %3, i64 0, i64 %113
  %115 = load i32, i32* %6, align 4
  %116 = sext i32 %115 to i64
  %117 = getelementptr inbounds [50 x i32], [50 x i32]* %5, i64 0, i64 %116
  %118 = load i32, i32* %117, align 4
  %119 = sub nsw i32 %118, 1
  %120 = sext i32 %119 to i64
  %121 = getelementptr inbounds [20 x i8], [20 x i8]* %114, i64 0, i64 %120
  %122 = load i8, i8* %121, align 1
  %123 = sext i8 %122 to i32
  %124 = icmp eq i32 %123, 121
  br i1 %124, label %125, label %152

125:                                              ; preds = %111
  store i32 0, i32* %9, align 4
  br label %126

126:                                              ; preds = %148, %125
  %127 = load i32, i32* %9, align 4
  %128 = load i32, i32* %6, align 4
  %129 = sext i32 %128 to i64
  %130 = getelementptr inbounds [50 x i32], [50 x i32]* %5, i64 0, i64 %129
  %131 = load i32, i32* %130, align 4
  %132 = sub nsw i32 %131, 2
  %133 = icmp slt i32 %127, %132
  br i1 %133, label %134, label %151

134:                                              ; preds = %126
  %135 = load i32, i32* %6, align 4
  %136 = sext i32 %135 to i64
  %137 = getelementptr inbounds [50 x [20 x i8]], [50 x [20 x i8]]* %3, i64 0, i64 %136
  %138 = load i32, i32* %9, align 4
  %139 = sext i32 %138 to i64
  %140 = getelementptr inbounds [20 x i8], [20 x i8]* %137, i64 0, i64 %139
  %141 = load i8, i8* %140, align 1
  %142 = load i32, i32* %6, align 4
  %143 = sext i32 %142 to i64
  %144 = getelementptr inbounds [50 x [20 x i8]], [50 x [20 x i8]]* %4, i64 0, i64 %143
  %145 = load i32, i32* %9, align 4
  %146 = sext i32 %145 to i64
  %147 = getelementptr inbounds [20 x i8], [20 x i8]* %144, i64 0, i64 %146
  store i8 %141, i8* %147, align 1
  br label %148

148:                                              ; preds = %134
  %149 = load i32, i32* %9, align 4
  %150 = add nsw i32 %149, 1
  store i32 %150, i32* %9, align 4
  br label %126

151:                                              ; preds = %126
  br label %152

152:                                              ; preds = %151, %111
  br label %153

153:                                              ; preds = %152, %110
  br label %154

154:                                              ; preds = %153, %69
  br label %155

155:                                              ; preds = %154
  %156 = load i32, i32* %6, align 4
  %157 = add nsw i32 %156, 1
  store i32 %157, i32* %6, align 4
  br label %12

158:                                              ; preds = %12
  store i32 0, i32* %6, align 4
  br label %159

159:                                              ; preds = %254, %158
  %160 = load i32, i32* %6, align 4
  %161 = load i32, i32* %2, align 4
  %162 = icmp slt i32 %160, %161
  br i1 %162, label %163, label %257

163:                                              ; preds = %159
  %164 = load i32, i32* %6, align 4
  %165 = sext i32 %164 to i64
  %166 = getelementptr inbounds [50 x [20 x i8]], [50 x [20 x i8]]* %3, i64 0, i64 %165
  %167 = load i32, i32* %6, align 4
  %168 = sext i32 %167 to i64
  %169 = getelementptr inbounds [50 x i32], [50 x i32]* %5, i64 0, i64 %168
  %170 = load i32, i32* %169, align 4
  %171 = sub nsw i32 %170, 1
  %172 = sext i32 %171 to i64
  %173 = getelementptr inbounds [20 x i8], [20 x i8]* %166, i64 0, i64 %172
  %174 = load i8, i8* %173, align 1
  %175 = sext i8 %174 to i32
  %176 = icmp eq i32 %175, 114
  br i1 %176, label %191, label %177

177:                                              ; preds = %163
  %178 = load i32, i32* %6, align 4
  %179 = sext i32 %178 to i64
  %180 = getelementptr inbounds [50 x [20 x i8]], [50 x [20 x i8]]* %3, i64 0, i64 %179
  %181 = load i32, i32* %6, align 4
  %182 = sext i32 %181 to i64
  %183 = getelementptr inbounds [50 x i32], [50 x i32]* %5, i64 0, i64 %182
  %184 = load i32, i32* %183, align 4
  %185 = sub nsw i32 %184, 1
  %186 = sext i32 %185 to i64
  %187 = getelementptr inbounds [20 x i8], [20 x i8]* %180, i64 0, i64 %186
  %188 = load i8, i8* %187, align 1
  %189 = sext i8 %188 to i32
  %190 = icmp eq i32 %189, 121
  br i1 %190, label %191, label %214

191:                                              ; preds = %177, %163
  store i32 0, i32* %10, align 4
  br label %192

192:                                              ; preds = %210, %191
  %193 = load i32, i32* %10, align 4
  %194 = load i32, i32* %6, align 4
  %195 = sext i32 %194 to i64
  %196 = getelementptr inbounds [50 x i32], [50 x i32]* %5, i64 0, i64 %195
  %197 = load i32, i32* %196, align 4
  %198 = sub nsw i32 %197, 2
  %199 = icmp slt i32 %193, %198
  br i1 %199, label %200, label %213

200:                                              ; preds = %192
  %201 = load i32, i32* %6, align 4
  %202 = sext i32 %201 to i64
  %203 = getelementptr inbounds [50 x [20 x i8]], [50 x [20 x i8]]* %4, i64 0, i64 %202
  %204 = load i32, i32* %10, align 4
  %205 = sext i32 %204 to i64
  %206 = getelementptr inbounds [20 x i8], [20 x i8]* %203, i64 0, i64 %205
  %207 = load i8, i8* %206, align 1
  %208 = sext i8 %207 to i32
  %209 = call i32 (i8*, ...) @printf(i8* getelementptr inbounds ([3 x i8], [3 x i8]* @.str.2, i64 0, i64 0), i32 %208)
  br label %210

210:                                              ; preds = %200
  %211 = load i32, i32* %10, align 4
  %212 = add nsw i32 %211, 1
  store i32 %212, i32* %10, align 4
  br label %192

213:                                              ; preds = %192
  br label %252

214:                                              ; preds = %177
  %215 = load i32, i32* %6, align 4
  %216 = sext i32 %215 to i64
  %217 = getelementptr inbounds [50 x [20 x i8]], [50 x [20 x i8]]* %3, i64 0, i64 %216
  %218 = load i32, i32* %6, align 4
  %219 = sext i32 %218 to i64
  %220 = getelementptr inbounds [50 x i32], [50 x i32]* %5, i64 0, i64 %219
  %221 = load i32, i32* %220, align 4
  %222 = sub nsw i32 %221, 1
  %223 = sext i32 %222 to i64
  %224 = getelementptr inbounds [20 x i8], [20 x i8]* %217, i64 0, i64 %223
  %225 = load i8, i8* %224, align 1
  %226 = sext i8 %225 to i32
  %227 = icmp eq i32 %226, 103
  br i1 %227, label %228, label %251

228:                                              ; preds = %214
  store i32 0, i32* %10, align 4
  br label %229

229:                                              ; preds = %247, %228
  %230 = load i32, i32* %10, align 4
  %231 = load i32, i32* %6, align 4
  %232 = sext i32 %231 to i64
  %233 = getelementptr inbounds [50 x i32], [50 x i32]* %5, i64 0, i64 %232
  %234 = load i32, i32* %233, align 4
  %235 = sub nsw i32 %234, 3
  %236 = icmp slt i32 %230, %235
  br i1 %236, label %237, label %250

237:                                              ; preds = %229
  %238 = load i32, i32* %6, align 4
  %239 = sext i32 %238 to i64
  %240 = getelementptr inbounds [50 x [20 x i8]], [50 x [20 x i8]]* %4, i64 0, i64 %239
  %241 = load i32, i32* %10, align 4
  %242 = sext i32 %241 to i64
  %243 = getelementptr inbounds [20 x i8], [20 x i8]* %240, i64 0, i64 %242
  %244 = load i8, i8* %243, align 1
  %245 = sext i8 %244 to i32
  %246 = call i32 (i8*, ...) @printf(i8* getelementptr inbounds ([3 x i8], [3 x i8]* @.str.2, i64 0, i64 0), i32 %245)
  br label %247

247:                                              ; preds = %237
  %248 = load i32, i32* %10, align 4
  %249 = add nsw i32 %248, 1
  store i32 %249, i32* %10, align 4
  br label %229

250:                                              ; preds = %229
  br label %251

251:                                              ; preds = %250, %214
  br label %252

252:                                              ; preds = %251, %213
  %253 = call i32 (i8*, ...) @printf(i8* getelementptr inbounds ([2 x i8], [2 x i8]* @.str.3, i64 0, i64 0))
  br label %254

254:                                              ; preds = %252
  %255 = load i32, i32* %6, align 4
  %256 = add nsw i32 %255, 1
  store i32 %256, i32* %6, align 4
  br label %159

257:                                              ; preds = %159
  ret i32 0
}

declare dso_local i32 @__isoc99_scanf(i8*, ...) #1

; Function Attrs: nounwind readonly
declare dso_local i64 @strlen(i8*) #2

declare dso_local i32 @printf(i8*, ...) #1


!llvm.module.flags = !{!0}
!llvm.ident = !{!1}

!0 = !{i32 1, !"wchar_size", i32 4}
!1 = !{!"clang version 10.0.0-4ubuntu1 "}
